; Function Attrs: mustprogress nofree norecurse nosync nounwind willreturn memory(argmem: readwrite) uwtable
define hidden void @storecompressed32(ptr noundef writeonly captures(none) %0, ptr noundef readonly captures(none) %1, ptr noundef readonly captures(none) %2, i32 noundef %3) local_unnamed_addr #0 {
  %5 = load i32, ptr %1, align 4
  %6 = load i32, ptr %2, align 4
  %7 = tail call i32 @llvm.x86.bmi.pext.32(i32 %5, i32 %6)
  switch i32 %3, label %partial_store_u32.exit [
    i32 4, label %8
    i32 3, label %9
    i32 2, label %14
    i32 1, label %16
  ]

8:                                                ; preds = %4
  store i32 %7, ptr %0, align 1
  br label %partial_store_u32.exit

9:                                                ; preds = %4
  %10 = trunc i32 %7 to i16
  store i16 %10, ptr %0, align 1
  %11 = lshr i32 %7, 16
  %12 = trunc i32 %11 to i8
  %13 = getelementptr inbounds nuw i8, ptr %0, i64 2
  store i8 %12, ptr %13, align 1
  br label %partial_store_u32.exit

14:                                               ; preds = %4
  %15 = trunc i32 %7 to i16
  store i16 %15, ptr %0, align 1
  br label %partial_store_u32.exit

16:                                               ; preds = %4
  %17 = trunc i32 %7 to i8
  store i8 %17, ptr %0, align 1
  br label %partial_store_u32.exit

partial_store_u32.exit:                           ; preds = %4, %8, %9, %14, %16
  ret void
}